target datalayout = "e-m:e-p270:32:32-p271:32:32-p272:64:64-i64:64-i128:128-f80:128-n8:16:32:64-S128"
target triple = "x86_64-pc-linux-gnu"

; Function Attrs: nounwind uwtable
define hidden i32 @internal_exr_validate_write_part(ptr noundef %0, ptr noundef %1) #0 {
  %3 = alloca i32, align 4
  %4 = alloca ptr, align 8
  %5 = alloca ptr, align 8
  %6 = alloca i32, align 4
  %7 = alloca i32, align 4
  store ptr %0, ptr %4, align 8, !tbaa !3
  store ptr %1, ptr %5, align 8, !tbaa !8
  call void @llvm.lifetime.start.p0(i64 4, ptr %6) #7
  %8 = load ptr, ptr %4, align 8, !tbaa !3
  %9 = load ptr, ptr %5, align 8, !tbaa !8
  %10 = call i32 @validate_req_attr(ptr noundef %8, ptr noundef %9, i32 noundef 0)
  store i32 %10, ptr %6, align 4, !tbaa !25
  %11 = load i32, ptr %6, align 4, !tbaa !25
  %12 = icmp ne i32 %11, 0
  br i1 %12, label %13, label %15

13:                                               ; preds = %2
  %14 = load i32, ptr %6, align 4, !tbaa !25
  store i32 %14, ptr %3, align 4
  store i32 1, ptr %7, align 4
  br label %56

15:                                               ; preds = %2
  %16 = load ptr, ptr %4, align 8, !tbaa !3
  %17 = load ptr, ptr %5, align 8, !tbaa !8
  %18 = call i32 @validate_image_dimensions(ptr noundef %16, ptr noundef %17)
  store i32 %18, ptr %6, align 4, !tbaa !25
  %19 = load i32, ptr %6, align 4, !tbaa !25
  %20 = icmp ne i32 %19, 0
  br i1 %20, label %21, label %23

21:                                               ; preds = %15
  %22 = load i32, ptr %6, align 4, !tbaa !25
  store i32 %22, ptr %3, align 4
  store i32 1, ptr %7, align 4
  br label %56

23:                                               ; preds = %15
  %24 = load ptr, ptr %4, align 8, !tbaa !3
  %25 = load ptr, ptr %5, align 8, !tbaa !8
  %26 = call i32 @validate_channels(ptr noundef %24, ptr noundef %25)
  store i32 %26, ptr %6, align 4, !tbaa !25
  %27 = load i32, ptr %6, align 4, !tbaa !25
  %28 = icmp ne i32 %27, 0
  br i1 %28, label %29, label %31

29:                                               ; preds = %23
  %30 = load i32, ptr %6, align 4, !tbaa !25
  store i32 %30, ptr %3, align 4
  store i32 1, ptr %7, align 4
  br label %56

31:                                               ; preds = %23
  %32 = load ptr, ptr %4, align 8, !tbaa !3
  %33 = load ptr, ptr %5, align 8, !tbaa !8
  %34 = call i32 @validate_part_type(ptr noundef %32, ptr noundef %33)
  store i32 %34, ptr %6, align 4, !tbaa !25
  %35 = load i32, ptr %6, align 4, !tbaa !25
  %36 = icmp ne i32 %35, 0
  br i1 %36, label %37, label %39

37:                                               ; preds = %31
  %38 = load i32, ptr %6, align 4, !tbaa !25
  store i32 %38, ptr %3, align 4
  store i32 1, ptr %7, align 4
  br label %56

39:                                               ; preds = %31
  %40 = load ptr, ptr %4, align 8, !tbaa !3
  %41 = load ptr, ptr %5, align 8, !tbaa !8
  %42 = call i32 @validate_tile_data(ptr noundef %40, ptr noundef %41)
  store i32 %42, ptr %6, align 4, !tbaa !25
  %43 = load i32, ptr %6, align 4, !tbaa !25
  %44 = icmp ne i32 %43, 0
  br i1 %44, label %45, label %47

45:                                               ; preds = %39
  %46 = load i32, ptr %6, align 4, !tbaa !25
  store i32 %46, ptr %3, align 4
  store i32 1, ptr %7, align 4
  br label %56

47:                                               ; preds = %39
  %48 = load ptr, ptr %4, align 8, !tbaa !3
  %49 = load ptr, ptr %5, align 8, !tbaa !8
  %50 = call i32 @validate_deep_data(ptr noundef %48, ptr noundef %49)
  store i32 %50, ptr %6, align 4, !tbaa !25
  %51 = load i32, ptr %6, align 4, !tbaa !25
  %52 = icmp ne i32 %51, 0
  br i1 %52, label %53, label %55

53:                                               ; preds = %47
  %54 = load i32, ptr %6, align 4, !tbaa !25
  store i32 %54, ptr %3, align 4
  store i32 1, ptr %7, align 4
  br label %56

55:                                               ; preds = %47
  store i32 0, ptr %3, align 4
  store i32 1, ptr %7, align 4
  br label %56

56:                                               ; preds = %55, %53, %45, %37, %29, %21, %13
  call void @llvm.lifetime.end.p0(i64 4, ptr %6) #7
  %57 = load i32, ptr %3, align 4
  ret i32 %57
}