; Function Attrs: nounwind uwtable
define hidden i32 @internal_exr_validate_write_part(ptr noundef %0, ptr noundef %1) local_unnamed_addr #0 {
  %3 = tail call fastcc i32 @validate_req_attr(ptr noundef %0, ptr noundef %1, i32 noundef 0)
  %.not = icmp eq i32 %3, 0
  br i1 %.not, label %4, label %14

4:                                                ; preds = %2
  %5 = tail call fastcc i32 @validate_image_dimensions(ptr noundef %0, ptr noundef %1)
  %.not30 = icmp eq i32 %5, 0
  br i1 %.not30, label %6, label %14

6:                                                ; preds = %4
  %7 = tail call fastcc i32 @validate_channels(ptr noundef %0, ptr noundef %1)
  %.not31 = icmp eq i32 %7, 0
  br i1 %.not31, label %8, label %14

8:                                                ; preds = %6
  %9 = tail call fastcc i32 @validate_part_type(ptr noundef %0, ptr noundef %1)
  %.not32 = icmp eq i32 %9, 0
  br i1 %.not32, label %10, label %14

10:                                               ; preds = %8
  %11 = tail call fastcc i32 @validate_tile_data(ptr noundef %0, ptr noundef %1)
  %.not33 = icmp eq i32 %11, 0
  br i1 %.not33, label %12, label %14

12:                                               ; preds = %10
  %13 = tail call fastcc i32 @validate_deep_data(ptr noundef %0, ptr noundef %1)
  br label %14

14:                                               ; preds = %12, %10, %8, %6, %4, %2
  %.0 = phi i32 [ %3, %2 ], [ %5, %4 ], [ %7, %6 ], [ %9, %8 ], [ %11, %10 ], [ %13, %12 ]
  ret i32 %.0
}